target datalayout = "e-m:e-p270:32:32-p271:32:32-p272:64:64-i64:64-i128:128-f80:128-n8:16:32:64-S128"
target triple = "x86_64-unknown-linux-gnu"

%struct.UText = type { i32, i32, i32, i32, i64, i32, i32, i64, i32, i32, ptr, ptr, ptr, ptr, ptr, ptr, ptr, ptr, i64, i32, i32, i64, i32, i32 }

; Function Attrs: mustprogress nounwind uwtable
define internal void @_ZL13adjustPointerP5UTextPPKvPKS_(ptr noundef %dest, ptr noundef %destPtr, ptr noundef %src) #1 {
entry:
  %dest.addr = alloca ptr, align 8
  %destPtr.addr = alloca ptr, align 8
  %src.addr = alloca ptr, align 8
  %dptr = alloca ptr, align 8
  %dUText = alloca ptr, align 8
  %sUText = alloca ptr, align 8
  store ptr %dest, ptr %dest.addr, align 8
  store ptr %destPtr, ptr %destPtr.addr, align 8
  store ptr %src, ptr %src.addr, align 8
  %0 = load ptr, ptr %destPtr.addr, align 8
  %1 = load ptr, ptr %0, align 8
  store ptr %1, ptr %dptr, align 8
  %2 = load ptr, ptr %dest.addr, align 8
  store ptr %2, ptr %dUText, align 8
  %3 = load ptr, ptr %src.addr, align 8
  store ptr %3, ptr %sUText, align 8
  %4 = load ptr, ptr %dptr, align 8
  %5 = load ptr, ptr %src.addr, align 8
  %pExtra = getelementptr inbounds %struct.UText, ptr %5, i32 0, i32 12
  %6 = load ptr, ptr %pExtra, align 8
  %cmp = icmp uge ptr %4, %6
  br i1 %cmp, label %land.lhs.true, label %if.else

land.lhs.true:                                    ; preds = %entry
  %7 = load ptr, ptr %dptr, align 8
  %8 = load ptr, ptr %src.addr, align 8
  %pExtra1 = getelementptr inbounds %struct.UText, ptr %8, i32 0, i32 12
  %9 = load ptr, ptr %pExtra1, align 8
  %10 = load ptr, ptr %src.addr, align 8
  %extraSize = getelementptr inbounds %struct.UText, ptr %10, i32 0, i32 5
  %11 = load i32, ptr %extraSize, align 8
  %idx.ext = sext i32 %11 to i64
  %add.ptr = getelementptr inbounds i8, ptr %9, i64 %idx.ext
  %cmp2 = icmp ult ptr %7, %add.ptr
  br i1 %cmp2, label %if.then, label %if.else

if.then:                                          ; preds = %land.lhs.true
  %12 = load ptr, ptr %dest.addr, align 8
  %pExtra3 = getelementptr inbounds %struct.UText, ptr %12, i32 0, i32 12
  %13 = load ptr, ptr %pExtra3, align 8
  %14 = load ptr, ptr %dptr, align 8
  %15 = load ptr, ptr %src.addr, align 8
  %pExtra4 = getelementptr inbounds %struct.UText, ptr %15, i32 0, i32 12
  %16 = load ptr, ptr %pExtra4, align 8
  %sub.ptr.lhs.cast = ptrtoint ptr %14 to i64
  %sub.ptr.rhs.cast = ptrtoint ptr %16 to i64
  %sub.ptr.sub = sub i64 %sub.ptr.lhs.cast, %sub.ptr.rhs.cast
  %add.ptr5 = getelementptr inbounds i8, ptr %13, i64 %sub.ptr.sub
  %17 = load ptr, ptr %destPtr.addr, align 8
  store ptr %add.ptr5, ptr %17, align 8
  br label %if.end16

if.else:                                          ; preds = %land.lhs.true, %entry
  %18 = load ptr, ptr %dptr, align 8
  %19 = load ptr, ptr %sUText, align 8
  %cmp6 = icmp uge ptr %18, %19
  br i1 %cmp6, label %land.lhs.true7, label %if.end

land.lhs.true7:                                   ; preds = %if.else
  %20 = load ptr, ptr %dptr, align 8
  %21 = load ptr, ptr %sUText, align 8
  %22 = load ptr, ptr %src.addr, align 8
  %sizeOfStruct = getelementptr inbounds %struct.UText, ptr %22, i32 0, i32 3
  %23 = load i32, ptr %sizeOfStruct, align 4
  %idx.ext8 = sext i32 %23 to i64
  %add.ptr9 = getelementptr inbounds i8, ptr %21, i64 %idx.ext8
  %cmp10 = icmp ult ptr %20, %add.ptr9
  br i1 %cmp10, label %if.then11, label %if.end

if.then11:                                        ; preds = %land.lhs.true7
  %24 = load ptr, ptr %dUText, align 8
  %25 = load ptr, ptr %dptr, align 8
  %26 = load ptr, ptr %sUText, align 8
  %sub.ptr.lhs.cast12 = ptrtoint ptr %25 to i64
  %sub.ptr.rhs.cast13 = ptrtoint ptr %26 to i64
  %sub.ptr.sub14 = sub i64 %sub.ptr.lhs.cast12, %sub.ptr.rhs.cast13
  %add.ptr15 = getelementptr inbounds i8, ptr %24, i64 %sub.ptr.sub14
  %27 = load ptr, ptr %destPtr.addr, align 8
  store ptr %add.ptr15, ptr %27, align 8
  br label %if.end

if.end:                                           ; preds = %if.then11, %land.lhs.true7, %if.else
  br label %if.end16

if.end16:                                         ; preds = %if.end, %if.then
  ret void
}

; Function Attrs: mustprogress nounwind uwtable
define internal noundef signext i8 @_ZL9U_FAILURE10UErrorCode(i32 noundef %code) #1 {
entry:
  %code.addr = alloca i32, align 4
  store i32 %code, ptr %code.addr, align 4
  %0 = load i32, ptr %code.addr, align 4
  %cmp = icmp sgt i32 %0, 0
  %conv = zext i1 %cmp to i8
  ret i8 %conv
}

; Function Attrs: mustprogress uwtable
define internal noundef ptr @_ZL16shallowTextCloneP5UTextPKS_P10UErrorCode(ptr noundef %dest, ptr noundef %src, ptr noundef %status) #0 {
entry:
  %retval = alloca ptr, align 8
  %dest.addr = alloca ptr, align 8
  %src.addr = alloca ptr, align 8
  %status.addr = alloca ptr, align 8
  %srcExtraSize = alloca i32, align 4
  %destExtra = alloca ptr, align 8
  %flags = alloca i32, align 4
  %sizeToCopy = alloca i32, align 4
  store ptr %dest, ptr %dest.addr, align 8
  store ptr %src, ptr %src.addr, align 8
  store ptr %status, ptr %status.addr, align 8
  %0 = load ptr, ptr %status.addr, align 8
  %1 = load i32, ptr %0, align 4
  %call = call noundef signext i8 @_ZL9U_FAILURE10UErrorCode(i32 noundef %1)
  %tobool = icmp ne i8 %call, 0
  br i1 %tobool, label %if.then, label %if.end

if.then:                                          ; preds = %entry
  store ptr null, ptr %retval, align 8
  br label %return

if.end:                                           ; preds = %entry
  %2 = load ptr, ptr %src.addr, align 8
  %extraSize = getelementptr inbounds %struct.UText, ptr %2, i32 0, i32 5
  %3 = load i32, ptr %extraSize, align 8
  store i32 %3, ptr %srcExtraSize, align 4
  %4 = load ptr, ptr %dest.addr, align 8
  %5 = load i32, ptr %srcExtraSize, align 4
  %6 = load ptr, ptr %status.addr, align 8
  %call1 = call ptr @utext_setup_75(ptr noundef %4, i32 noundef %5, ptr noundef %6)
  store ptr %call1, ptr %dest.addr, align 8
  %7 = load ptr, ptr %status.addr, align 8
  %8 = load i32, ptr %7, align 4
  %call2 = call noundef signext i8 @_ZL9U_FAILURE10UErrorCode(i32 noundef %8)
  %tobool3 = icmp ne i8 %call2, 0
  br i1 %tobool3, label %if.then4, label %if.end5

if.then4:                                         ; preds = %if.end
  %9 = load ptr, ptr %dest.addr, align 8
  store ptr %9, ptr %retval, align 8
  br label %return

if.end5:                                          ; preds = %if.end
  %10 = load ptr, ptr %dest.addr, align 8
  %pExtra = getelementptr inbounds %struct.UText, ptr %10, i32 0, i32 12
  %11 = load ptr, ptr %pExtra, align 8
  store ptr %11, ptr %destExtra, align 8
  %12 = load ptr, ptr %dest.addr, align 8
  %flags6 = getelementptr inbounds %struct.UText, ptr %12, i32 0, i32 1
  %13 = load i32, ptr %flags6, align 4
  store i32 %13, ptr %flags, align 4
  %14 = load ptr, ptr %src.addr, align 8
  %sizeOfStruct = getelementptr inbounds %struct.UText, ptr %14, i32 0, i32 3
  %15 = load i32, ptr %sizeOfStruct, align 4
  store i32 %15, ptr %sizeToCopy, align 4
  %16 = load i32, ptr %sizeToCopy, align 4
  %17 = load ptr, ptr %dest.addr, align 8
  %sizeOfStruct7 = getelementptr inbounds %struct.UText, ptr %17, i32 0, i32 3
  %18 = load i32, ptr %sizeOfStruct7, align 4
  %cmp = icmp sgt i32 %16, %18
  br i1 %cmp, label %if.then8, label %if.end10

if.then8:                                         ; preds = %if.end5
  %19 = load ptr, ptr %dest.addr, align 8
  %sizeOfStruct9 = getelementptr inbounds %struct.UText, ptr %19, i32 0, i32 3
  %20 = load i32, ptr %sizeOfStruct9, align 4
  store i32 %20, ptr %sizeToCopy, align 4
  br label %if.end10

if.end10:                                         ; preds = %if.then8, %if.end5
  br label %do.body

do.body:                                          ; preds = %if.end10
  %21 = load ptr, ptr %dest.addr, align 8
  %22 = load ptr, ptr %src.addr, align 8
  %23 = load i32, ptr %sizeToCopy, align 4
  %conv = sext i32 %23 to i64
  call void @llvm.memcpy.p0.p0.i64(ptr align 8 %21, ptr align 8 %22, i64 %conv, i1 false)
  br label %do.end

do.end:                                           ; preds = %do.body
  %24 = load ptr, ptr %destExtra, align 8
  %25 = load ptr, ptr %dest.addr, align 8
  %pExtra11 = getelementptr inbounds %struct.UText, ptr %25, i32 0, i32 12
  store ptr %24, ptr %pExtra11, align 8
  %26 = load i32, ptr %flags, align 4
  %27 = load ptr, ptr %dest.addr, align 8
  %flags12 = getelementptr inbounds %struct.UText, ptr %27, i32 0, i32 1
  store i32 %26, ptr %flags12, align 4
  %28 = load i32, ptr %srcExtraSize, align 4
  %cmp13 = icmp sgt i32 %28, 0
  br i1 %cmp13, label %if.then14, label %if.end20

if.then14:                                        ; preds = %do.end
  br label %do.body15

do.body15:                                        ; preds = %if.then14
  %29 = load ptr, ptr %dest.addr, align 8
  %pExtra16 = getelementptr inbounds %struct.UText, ptr %29, i32 0, i32 12
  %30 = load ptr, ptr %pExtra16, align 8
  %31 = load ptr, ptr %src.addr, align 8
  %pExtra17 = getelementptr inbounds %struct.UText, ptr %31, i32 0, i32 12
  %32 = load ptr, ptr %pExtra17, align 8
  %33 = load i32, ptr %srcExtraSize, align 4
  %conv18 = sext i32 %33 to i64
  call void @llvm.memcpy.p0.p0.i64(ptr align 1 %30, ptr align 1 %32, i64 %conv18, i1 false)
  br label %do.end19

do.end19:                                         ; preds = %do.body15
  br label %if.end20

if.end20:                                         ; preds = %do.end19, %do.end
  %34 = load ptr, ptr %dest.addr, align 8
  %35 = load ptr, ptr %dest.addr, align 8
  %context = getelementptr inbounds %struct.UText, ptr %35, i32 0, i32 13
  %36 = load ptr, ptr %src.addr, align 8
  call void @_ZL13adjustPointerP5UTextPPKvPKS_(ptr noundef %34, ptr noundef %context, ptr noundef %36)
  %37 = load ptr, ptr %dest.addr, align 8
  %38 = load ptr, ptr %dest.addr, align 8
  %p = getelementptr inbounds %struct.UText, ptr %38, i32 0, i32 14
  %39 = load ptr, ptr %src.addr, align 8
  call void @_ZL13adjustPointerP5UTextPPKvPKS_(ptr noundef %37, ptr noundef %p, ptr noundef %39)
  %40 = load ptr, ptr %dest.addr, align 8
  %41 = load ptr, ptr %dest.addr, align 8
  %q = getelementptr inbounds %struct.UText, ptr %41, i32 0, i32 15
  %42 = load ptr, ptr %src.addr, align 8
  call void @_ZL13adjustPointerP5UTextPPKvPKS_(ptr noundef %40, ptr noundef %q, ptr noundef %42)
  %43 = load ptr, ptr %dest.addr, align 8
  %44 = load ptr, ptr %dest.addr, align 8
  %r = getelementptr inbounds %struct.UText, ptr %44, i32 0, i32 16
  %45 = load ptr, ptr %src.addr, align 8
  call void @_ZL13adjustPointerP5UTextPPKvPKS_(ptr noundef %43, ptr noundef %r, ptr noundef %45)
  %46 = load ptr, ptr %dest.addr, align 8
  %47 = load ptr, ptr %dest.addr, align 8
  %chunkContents = getelementptr inbounds %struct.UText, ptr %47, i32 0, i32 10
  %48 = load ptr, ptr %src.addr, align 8
  call void @_ZL13adjustPointerP5UTextPPKvPKS_(ptr noundef %46, ptr noundef %chunkContents, ptr noundef %48)
  %49 = load ptr, ptr %dest.addr, align 8
  %providerProperties = getelementptr inbounds %struct.UText, ptr %49, i32 0, i32 2
  %50 = load i32, ptr %providerProperties, align 8
  %and = and i32 %50, -33
  store i32 %and, ptr %providerProperties, align 8
  %51 = load ptr, ptr %dest.addr, align 8
  store ptr %51, ptr %retval, align 8
  br label %return

return:                                           ; preds = %if.end20, %if.then4, %if.then
  %52 = load ptr, ptr %retval, align 8
  ret ptr %52
}