; Function Attrs: mustprogress uwtable
define internal fastcc noundef ptr @_ZL16shallowTextCloneP5UTextPKS_P10UErrorCode(ptr noundef %dest, ptr noundef %src, ptr nocapture noundef %status) unnamed_addr #0 {
entry:
  %0 = load i32, ptr %status, align 4
  %cmp.i = icmp slt i32 %0, 1
  br i1 %cmp.i, label %if.end, label %return

if.end:                                           ; preds = %entry
  %extraSize = getelementptr inbounds i8, ptr %src, i64 24
  %1 = load i32, ptr %extraSize, align 8
  %call1 = tail call ptr @utext_setup_75(ptr noundef %dest, i32 noundef %1, ptr noundef nonnull %status)
  %2 = load i32, ptr %status, align 4
  %cmp.i37 = icmp slt i32 %2, 1
  br i1 %cmp.i37, label %if.end5, label %return

if.end5:                                          ; preds = %if.end
  %pExtra = getelementptr inbounds i8, ptr %call1, i64 64
  %3 = load ptr, ptr %pExtra, align 8
  %flags6 = getelementptr inbounds i8, ptr %call1, i64 4
  %4 = load i32, ptr %flags6, align 4
  %sizeOfStruct = getelementptr inbounds i8, ptr %src, i64 12
  %5 = load i32, ptr %sizeOfStruct, align 4
  %sizeOfStruct7 = getelementptr inbounds i8, ptr %call1, i64 12
  %6 = load i32, ptr %sizeOfStruct7, align 4
  %spec.select = tail call i32 @llvm.smin.i32(i32 %5, i32 %6)
  %conv = sext i32 %spec.select to i64
  tail call void @llvm.memcpy.p0.p0.i64(ptr align 8 %call1, ptr nonnull align 8 %src, i64 %conv, i1 false)
  store ptr %3, ptr %pExtra, align 8
  store i32 %4, ptr %flags6, align 4
  %cmp13 = icmp sgt i32 %1, 0
  br i1 %cmp13, label %do.body15, label %if.end20

do.body15:                                        ; preds = %if.end5
  %pExtra17 = getelementptr inbounds i8, ptr %src, i64 64
  %7 = load ptr, ptr %pExtra17, align 8
  %conv18 = zext nneg i32 %1 to i64
  tail call void @llvm.memcpy.p0.p0.i64(ptr align 1 %3, ptr align 1 %7, i64 %conv18, i1 false)
  br label %if.end20

if.end20:                                         ; preds = %do.body15, %if.end5
  %context = getelementptr inbounds i8, ptr %call1, i64 72
  %8 = load ptr, ptr %context, align 8
  %pExtra.i = getelementptr inbounds i8, ptr %src, i64 64
  %9 = load ptr, ptr %pExtra.i, align 8
  %cmp.not.i = icmp ult ptr %8, %9
  br i1 %cmp.not.i, label %if.else.i, label %land.lhs.true.i

land.lhs.true.i:                                  ; preds = %if.end20
  %10 = load i32, ptr %extraSize, align 8
  %idx.ext.i = sext i32 %10 to i64
  %add.ptr.i = getelementptr inbounds i8, ptr %9, i64 %idx.ext.i
  %cmp2.i = icmp ult ptr %8, %add.ptr.i
  br i1 %cmp2.i, label %if.then.i, label %if.else.i

if.then.i:                                        ; preds = %land.lhs.true.i
  %11 = load ptr, ptr %pExtra, align 8
  br label %if.end16.sink.split.i

if.else.i:                                        ; preds = %land.lhs.true.i, %if.end20
  %cmp6.not.i = icmp ult ptr %8, %src
  br i1 %cmp6.not.i, label %_ZL13adjustPointerP5UTextPPKvPKS_.exit, label %land.lhs.true7.i

land.lhs.true7.i:                                 ; preds = %if.else.i
  %12 = load i32, ptr %sizeOfStruct, align 4
  %idx.ext8.i = sext i32 %12 to i64
  %add.ptr9.i = getelementptr inbounds i8, ptr %src, i64 %idx.ext8.i
  %cmp10.i = icmp ult ptr %8, %add.ptr9.i
  br i1 %cmp10.i, label %if.end16.sink.split.i, label %_ZL13adjustPointerP5UTextPPKvPKS_.exit

if.end16.sink.split.i:                            ; preds = %land.lhs.true7.i, %if.then.i
  %src.sink.i = phi ptr [ %9, %if.then.i ], [ %src, %land.lhs.true7.i ]
  %dest.sink.i = phi ptr [ %11, %if.then.i ], [ %call1, %land.lhs.true7.i ]
  %sub.ptr.lhs.cast12.i = ptrtoint ptr %8 to i64
  %sub.ptr.rhs.cast13.i = ptrtoint ptr %src.sink.i to i64
  %sub.ptr.sub14.i = sub i64 %sub.ptr.lhs.cast12.i, %sub.ptr.rhs.cast13.i
  %add.ptr15.i = getelementptr inbounds i8, ptr %dest.sink.i, i64 %sub.ptr.sub14.i
  store ptr %add.ptr15.i, ptr %context, align 8
  %.pre = load ptr, ptr %pExtra.i, align 8
  br label %_ZL13adjustPointerP5UTextPPKvPKS_.exit

_ZL13adjustPointerP5UTextPPKvPKS_.exit:           ; preds = %if.else.i, %land.lhs.true7.i, %if.end16.sink.split.i
  %13 = phi ptr [ %9, %if.else.i ], [ %9, %land.lhs.true7.i ], [ %.pre, %if.end16.sink.split.i ]
  %p = getelementptr inbounds i8, ptr %call1, i64 80
  %14 = load ptr, ptr %p, align 8
  %cmp.not.i40 = icmp ult ptr %14, %13
  br i1 %cmp.not.i40, label %if.else.i46, label %land.lhs.true.i41

land.lhs.true.i41:                                ; preds = %_ZL13adjustPointerP5UTextPPKvPKS_.exit
  %15 = load i32, ptr %extraSize, align 8
  %idx.ext.i43 = sext i32 %15 to i64
  %add.ptr.i44 = getelementptr inbounds i8, ptr %13, i64 %idx.ext.i43
  %cmp2.i45 = icmp ult ptr %14, %add.ptr.i44
  br i1 %cmp2.i45, label %if.then.i60, label %if.else.i46

if.then.i60:                                      ; preds = %land.lhs.true.i41
  %16 = load ptr, ptr %pExtra, align 8
  br label %if.end16.sink.split.i53

if.else.i46:                                      ; preds = %land.lhs.true.i41, %_ZL13adjustPointerP5UTextPPKvPKS_.exit
  %cmp6.not.i47 = icmp ult ptr %14, %src
  br i1 %cmp6.not.i47, label %_ZL13adjustPointerP5UTextPPKvPKS_.exit62, label %land.lhs.true7.i48

land.lhs.true7.i48:                               ; preds = %if.else.i46
  %17 = load i32, ptr %sizeOfStruct, align 4
  %idx.ext8.i50 = sext i32 %17 to i64
  %add.ptr9.i51 = getelementptr inbounds i8, ptr %src, i64 %idx.ext8.i50
  %cmp10.i52 = icmp ult ptr %14, %add.ptr9.i51
  br i1 %cmp10.i52, label %if.end16.sink.split.i53, label %_ZL13adjustPointerP5UTextPPKvPKS_.exit62

if.end16.sink.split.i53:                          ; preds = %land.lhs.true7.i48, %if.then.i60
  %src.sink.i54 = phi ptr [ %13, %if.then.i60 ], [ %src, %land.lhs.true7.i48 ]
  %dest.sink.i55 = phi ptr [ %16, %if.then.i60 ], [ %call1, %land.lhs.true7.i48 ]
  %sub.ptr.lhs.cast12.i56 = ptrtoint ptr %14 to i64
  %sub.ptr.rhs.cast13.i57 = ptrtoint ptr %src.sink.i54 to i64
  %sub.ptr.sub14.i58 = sub i64 %sub.ptr.lhs.cast12.i56, %sub.ptr.rhs.cast13.i57
  %add.ptr15.i59 = getelementptr inbounds i8, ptr %dest.sink.i55, i64 %sub.ptr.sub14.i58
  store ptr %add.ptr15.i59, ptr %p, align 8
  %.pre135 = load ptr, ptr %pExtra.i, align 8
  br label %_ZL13adjustPointerP5UTextPPKvPKS_.exit62

_ZL13adjustPointerP5UTextPPKvPKS_.exit62:         ; preds = %if.else.i46, %land.lhs.true7.i48, %if.end16.sink.split.i53
  %18 = phi ptr [ %13, %if.else.i46 ], [ %13, %land.lhs.true7.i48 ], [ %.pre135, %if.end16.sink.split.i53 ]
  %q = getelementptr inbounds i8, ptr %call1, i64 88
  %19 = load ptr, ptr %q, align 8
  %cmp.not.i64 = icmp ult ptr %19, %18
  br i1 %cmp.not.i64, label %if.else.i70, label %land.lhs.true.i65

land.lhs.true.i65:                                ; preds = %_ZL13adjustPointerP5UTextPPKvPKS_.exit62
  %20 = load i32, ptr %extraSize, align 8
  %idx.ext.i67 = sext i32 %20 to i64
  %add.ptr.i68 = getelementptr inbounds i8, ptr %18, i64 %idx.ext.i67
  %cmp2.i69 = icmp ult ptr %19, %add.ptr.i68
  br i1 %cmp2.i69, label %if.then.i84, label %if.else.i70

if.then.i84:                                      ; preds = %land.lhs.true.i65
  %21 = load ptr, ptr %pExtra, align 8
  br label %if.end16.sink.split.i77

if.else.i70:                                      ; preds = %land.lhs.true.i65, %_ZL13adjustPointerP5UTextPPKvPKS_.exit62
  %cmp6.not.i71 = icmp ult ptr %19, %src
  br i1 %cmp6.not.i71, label %_ZL13adjustPointerP5UTextPPKvPKS_.exit86, label %land.lhs.true7.i72

land.lhs.true7.i72:                               ; preds = %if.else.i70
  %22 = load i32, ptr %sizeOfStruct, align 4
  %idx.ext8.i74 = sext i32 %22 to i64
  %add.ptr9.i75 = getelementptr inbounds i8, ptr %src, i64 %idx.ext8.i74
  %cmp10.i76 = icmp ult ptr %19, %add.ptr9.i75
  br i1 %cmp10.i76, label %if.end16.sink.split.i77, label %_ZL13adjustPointerP5UTextPPKvPKS_.exit86

if.end16.sink.split.i77:                          ; preds = %land.lhs.true7.i72, %if.then.i84
  %src.sink.i78 = phi ptr [ %18, %if.then.i84 ], [ %src, %land.lhs.true7.i72 ]
  %dest.sink.i79 = phi ptr [ %21, %if.then.i84 ], [ %call1, %land.lhs.true7.i72 ]
  %sub.ptr.lhs.cast12.i80 = ptrtoint ptr %19 to i64
  %sub.ptr.rhs.cast13.i81 = ptrtoint ptr %src.sink.i78 to i64
  %sub.ptr.sub14.i82 = sub i64 %sub.ptr.lhs.cast12.i80, %sub.ptr.rhs.cast13.i81
  %add.ptr15.i83 = getelementptr inbounds i8, ptr %dest.sink.i79, i64 %sub.ptr.sub14.i82
  store ptr %add.ptr15.i83, ptr %q, align 8
  %.pre136 = load ptr, ptr %pExtra.i, align 8
  br label %_ZL13adjustPointerP5UTextPPKvPKS_.exit86

_ZL13adjustPointerP5UTextPPKvPKS_.exit86:         ; preds = %if.else.i70, %land.lhs.true7.i72, %if.end16.sink.split.i77
  %23 = phi ptr [ %18, %if.else.i70 ], [ %18, %land.lhs.true7.i72 ], [ %.pre136, %if.end16.sink.split.i77 ]
  %r = getelementptr inbounds i8, ptr %call1, i64 96
  %24 = load ptr, ptr %r, align 8
  %cmp.not.i88 = icmp ult ptr %24, %23
  br i1 %cmp.not.i88, label %if.else.i94, label %land.lhs.true.i89

land.lhs.true.i89:                                ; preds = %_ZL13adjustPointerP5UTextPPKvPKS_.exit86
  %25 = load i32, ptr %extraSize, align 8
  %idx.ext.i91 = sext i32 %25 to i64
  %add.ptr.i92 = getelementptr inbounds i8, ptr %23, i64 %idx.ext.i91
  %cmp2.i93 = icmp ult ptr %24, %add.ptr.i92
  br i1 %cmp2.i93, label %if.then.i108, label %if.else.i94

if.then.i108:                                     ; preds = %land.lhs.true.i89
  %26 = load ptr, ptr %pExtra, align 8
  br label %if.end16.sink.split.i101

if.else.i94:                                      ; preds = %land.lhs.true.i89, %_ZL13adjustPointerP5UTextPPKvPKS_.exit86
  %cmp6.not.i95 = icmp ult ptr %24, %src
  br i1 %cmp6.not.i95, label %_ZL13adjustPointerP5UTextPPKvPKS_.exit110, label %land.lhs.true7.i96

land.lhs.true7.i96:                               ; preds = %if.else.i94
  %27 = load i32, ptr %sizeOfStruct, align 4
  %idx.ext8.i98 = sext i32 %27 to i64
  %add.ptr9.i99 = getelementptr inbounds i8, ptr %src, i64 %idx.ext8.i98
  %cmp10.i100 = icmp ult ptr %24, %add.ptr9.i99
  br i1 %cmp10.i100, label %if.end16.sink.split.i101, label %_ZL13adjustPointerP5UTextPPKvPKS_.exit110

if.end16.sink.split.i101:                         ; preds = %land.lhs.true7.i96, %if.then.i108
  %src.sink.i102 = phi ptr [ %23, %if.then.i108 ], [ %src, %land.lhs.true7.i96 ]
  %dest.sink.i103 = phi ptr [ %26, %if.then.i108 ], [ %call1, %land.lhs.true7.i96 ]
  %sub.ptr.lhs.cast12.i104 = ptrtoint ptr %24 to i64
  %sub.ptr.rhs.cast13.i105 = ptrtoint ptr %src.sink.i102 to i64
  %sub.ptr.sub14.i106 = sub i64 %sub.ptr.lhs.cast12.i104, %sub.ptr.rhs.cast13.i105
  %add.ptr15.i107 = getelementptr inbounds i8, ptr %dest.sink.i103, i64 %sub.ptr.sub14.i106
  store ptr %add.ptr15.i107, ptr %r, align 8
  %.pre137 = load ptr, ptr %pExtra.i, align 8
  br label %_ZL13adjustPointerP5UTextPPKvPKS_.exit110

_ZL13adjustPointerP5UTextPPKvPKS_.exit110:        ; preds = %if.else.i94, %land.lhs.true7.i96, %if.end16.sink.split.i101
  %28 = phi ptr [ %23, %if.else.i94 ], [ %23, %land.lhs.true7.i96 ], [ %.pre137, %if.end16.sink.split.i101 ]
  %chunkContents = getelementptr inbounds i8, ptr %call1, i64 48
  %29 = load ptr, ptr %chunkContents, align 8
  %cmp.not.i112 = icmp ult ptr %29, %28
  br i1 %cmp.not.i112, label %if.else.i118, label %land.lhs.true.i113

land.lhs.true.i113:                               ; preds = %_ZL13adjustPointerP5UTextPPKvPKS_.exit110
  %30 = load i32, ptr %extraSize, align 8
  %idx.ext.i115 = sext i32 %30 to i64
  %add.ptr.i116 = getelementptr inbounds i8, ptr %28, i64 %idx.ext.i115
  %cmp2.i117 = icmp ult ptr %29, %add.ptr.i116
  br i1 %cmp2.i117, label %if.then.i132, label %if.else.i118

if.then.i132:                                     ; preds = %land.lhs.true.i113
  %31 = load ptr, ptr %pExtra, align 8
  br label %if.end16.sink.split.i125

if.else.i118:                                     ; preds = %land.lhs.true.i113, %_ZL13adjustPointerP5UTextPPKvPKS_.exit110
  %cmp6.not.i119 = icmp ult ptr %29, %src
  br i1 %cmp6.not.i119, label %_ZL13adjustPointerP5UTextPPKvPKS_.exit134, label %land.lhs.true7.i120

land.lhs.true7.i120:                              ; preds = %if.else.i118
  %32 = load i32, ptr %sizeOfStruct, align 4
  %idx.ext8.i122 = sext i32 %32 to i64
  %add.ptr9.i123 = getelementptr inbounds i8, ptr %src, i64 %idx.ext8.i122
  %cmp10.i124 = icmp ult ptr %29, %add.ptr9.i123
  br i1 %cmp10.i124, label %if.end16.sink.split.i125, label %_ZL13adjustPointerP5UTextPPKvPKS_.exit134

if.end16.sink.split.i125:                         ; preds = %land.lhs.true7.i120, %if.then.i132
  %src.sink.i126 = phi ptr [ %28, %if.then.i132 ], [ %src, %land.lhs.true7.i120 ]
  %dest.sink.i127 = phi ptr [ %31, %if.then.i132 ], [ %call1, %land.lhs.true7.i120 ]
  %sub.ptr.lhs.cast12.i128 = ptrtoint ptr %29 to i64
  %sub.ptr.rhs.cast13.i129 = ptrtoint ptr %src.sink.i126 to i64
  %sub.ptr.sub14.i130 = sub i64 %sub.ptr.lhs.cast12.i128, %sub.ptr.rhs.cast13.i129
  %add.ptr15.i131 = getelementptr inbounds i8, ptr %dest.sink.i127, i64 %sub.ptr.sub14.i130
  store ptr %add.ptr15.i131, ptr %chunkContents, align 8
  br label %_ZL13adjustPointerP5UTextPPKvPKS_.exit134

_ZL13adjustPointerP5UTextPPKvPKS_.exit134:        ; preds = %if.else.i118, %land.lhs.true7.i120, %if.end16.sink.split.i125
  %providerProperties = getelementptr inbounds i8, ptr %call1, i64 8
  %33 = load i32, ptr %providerProperties, align 8
  %and = and i32 %33, -33
  store i32 %and, ptr %providerProperties, align 8
  br label %return

return:                                           ; preds = %if.end, %entry, %_ZL13adjustPointerP5UTextPPKvPKS_.exit134
  %retval.0 = phi ptr [ %call1, %_ZL13adjustPointerP5UTextPPKvPKS_.exit134 ], [ null, %entry ], [ %call1, %if.end ]
  ret ptr %retval.0
}